; Function Attrs: mustprogress uwtable
define hidden noundef i32 @_ZN16demodulator_util10max_var_idEP4expr(ptr noundef nonnull readnone align 8 captures(none) dereferenceable(8) %0, ptr noundef %1) local_unnamed_addr #3 align 2 personality ptr @__gxx_personality_v0 {
  %3 = alloca %class.obj_mark, align 8
  %4 = alloca %class.max_var_id_proc, align 4
  call void @llvm.lifetime.start.p0(i64 4, ptr nonnull %4) #22
  store i32 0, ptr %4, align 4, !tbaa !119
  call void @llvm.lifetime.start.p0(i64 24, ptr nonnull %3) #22
  %5 = getelementptr inbounds nuw i8, ptr %3, i64 8
  call void @llvm.memset.p0.i64(ptr noundef nonnull align 8 dereferenceable(16) %5, i8 0, i64 16, i1 false)
  invoke void @_Z18for_each_expr_coreI15max_var_id_proc8obj_markI4expr10bit_vector14default_t2uintIS2_EELb0ELb0EEvRT_RT0_PS2_(ptr noundef nonnull align 4 dereferenceable(4) %4, ptr noundef nonnull align 8 dereferenceable(24) %3, ptr noundef %1)
          to label %6 unwind label %14

6:                                                ; preds = %2
  %7 = getelementptr inbounds nuw i8, ptr %3, i64 16
  %8 = load ptr, ptr %7, align 8, !tbaa !14
  %9 = icmp eq ptr %8, null
  br i1 %9, label %_Z13for_each_exprI15max_var_id_procEvRT_P4expr.exit, label %10

10:                                               ; preds = %6
  invoke void @_ZN6memory10deallocateEPv(ptr noundef nonnull %8)
          to label %_Z13for_each_exprI15max_var_id_procEvRT_P4expr.exit unwind label %11

11:                                               ; preds = %10
  %12 = landingpad { ptr, i32 }
          catch ptr null
  %13 = extractvalue { ptr, i32 } %12, 0
  call void @__clang_call_terminate(ptr %13) #23
  unreachable

14:                                               ; preds = %2
  %15 = landingpad { ptr, i32 }
          cleanup
  call void @_ZN8obj_markI4expr10bit_vector14default_t2uintIS0_EED2Ev(ptr noundef nonnull align 8 dereferenceable(24) %3) #22
  call void @llvm.lifetime.end.p0(i64 24, ptr nonnull %3) #22
  resume { ptr, i32 } %15

_Z13for_each_exprI15max_var_id_procEvRT_P4expr.exit: ; preds = %6, %10
  call void @llvm.lifetime.end.p0(i64 24, ptr nonnull %3) #22
  %16 = load i32, ptr %4, align 4, !tbaa !119
  call void @llvm.lifetime.end.p0(i64 4, ptr nonnull %4) #22
  ret i32 %16
}